; Function Attrs: nounwind uwtable
define internal ptr @math_floor(ptr noundef readonly captures(none) %0, ptr noundef %1) #0 {
  %3 = getelementptr i8, ptr %1, i64 8
  %.val21 = load ptr, ptr %3, align 8, !tbaa !16
  %.not = icmp eq ptr %.val21, @PyFloat_Type
  br i1 %.not, label %4, label %6

4:                                                ; preds = %2
  %5 = getelementptr i8, ptr %1, i64 16
  %.val22 = load double, ptr %5, align 8, !tbaa !17
  br label %Py_DECREF.exit

6:                                                ; preds = %2
  %7 = getelementptr i8, ptr %0, i64 32
  %.val = load ptr, ptr %7, align 8, !tbaa !3
  %8 = getelementptr inbounds nuw i8, ptr %.val, i64 8
  %9 = load ptr, ptr %8, align 8, !tbaa !40
  %10 = tail call ptr @_PyObject_LookupSpecial(ptr noundef nonnull %1, ptr noundef %9) #16
  %.not18 = icmp eq ptr %10, null
  br i1 %.not18, label %29, label %11

11:                                               ; preds = %6
  %12 = tail call ptr @_PyThreadState_GetCurrent() #16
  %13 = getelementptr i8, ptr %10, i64 8
  %.val.i.i.i = load ptr, ptr %13, align 8, !tbaa !16
  %14 = getelementptr i8, ptr %.val.i.i.i, i64 168
  %.val6.i.i.i = load i64, ptr %14, align 8, !tbaa !22
  %15 = and i64 %.val6.i.i.i, 2048
  %.not.i.i.i = icmp eq i64 %15, 0
  br i1 %.not.i.i.i, label %_PyVectorcall_FunctionInline.exit.thread.i.i, label %_PyVectorcall_FunctionInline.exit.i.i

_PyVectorcall_FunctionInline.exit.i.i:            ; preds = %11
  %16 = getelementptr inbounds nuw i8, ptr %.val.i.i.i, i64 56
  %17 = load i64, ptr %16, align 8, !tbaa !31
  %18 = getelementptr i8, ptr %10, i64 %17
  %.0.copyload.i.i.i = load ptr, ptr %18, align 1
  %19 = icmp eq ptr %.0.copyload.i.i.i, null
  br i1 %19, label %_PyVectorcall_FunctionInline.exit.thread.i.i, label %21

_PyVectorcall_FunctionInline.exit.thread.i.i:     ; preds = %_PyVectorcall_FunctionInline.exit.i.i, %11
  %20 = tail call ptr @_PyObject_MakeTpCall(ptr noundef %12, ptr noundef nonnull %10, ptr noundef null, i64 noundef 0, ptr noundef null) #16
  br label %_PyObject_CallNoArgs.exit

21:                                               ; preds = %_PyVectorcall_FunctionInline.exit.i.i
  %22 = tail call ptr %.0.copyload.i.i.i(ptr noundef nonnull %10, ptr noundef null, i64 noundef 0, ptr noundef null) #16
  %23 = tail call ptr @_Py_CheckFunctionResult(ptr noundef %12, ptr noundef nonnull %10, ptr noundef %22, ptr noundef null) #16
  br label %_PyObject_CallNoArgs.exit

_PyObject_CallNoArgs.exit:                        ; preds = %_PyVectorcall_FunctionInline.exit.thread.i.i, %21
  %.0.i.i = phi ptr [ %20, %_PyVectorcall_FunctionInline.exit.thread.i.i ], [ %23, %21 ]
  %24 = load i32, ptr %10, align 8, !tbaa !13
  %.not.i = icmp sgt i32 %24, -1
  br i1 %.not.i, label %25, label %Py_DECREF.exit.thread

25:                                               ; preds = %_PyObject_CallNoArgs.exit
  %26 = add nsw i32 %24, -1
  store i32 %26, ptr %10, align 8, !tbaa !13
  %27 = icmp eq i32 %26, 0
  br i1 %27, label %28, label %Py_DECREF.exit.thread

28:                                               ; preds = %25
  tail call void @_Py_Dealloc(ptr noundef nonnull %10) #16
  br label %Py_DECREF.exit.thread

29:                                               ; preds = %6
  %30 = tail call ptr @PyErr_Occurred() #16
  %.not19 = icmp eq ptr %30, null
  br i1 %.not19, label %31, label %Py_DECREF.exit.thread

31:                                               ; preds = %29
  %32 = tail call double @PyFloat_AsDouble(ptr noundef nonnull %1) #16
  %33 = fcmp oeq double %32, -1.000000e+00
  br i1 %33, label %34, label %Py_DECREF.exit

34:                                               ; preds = %31
  %35 = tail call ptr @PyErr_Occurred() #16
  %.not20 = icmp eq ptr %35, null
  br i1 %.not20, label %Py_DECREF.exit, label %Py_DECREF.exit.thread

Py_DECREF.exit:                                   ; preds = %34, %31, %4
  %.014 = phi double [ %.val22, %4 ], [ %32, %31 ], [ -1.000000e+00, %34 ]
  %36 = tail call double @llvm.floor.f64(double %.014)
  %37 = tail call ptr @PyLong_FromDouble(double noundef %36) #16
  br label %Py_DECREF.exit.thread

Py_DECREF.exit.thread:                            ; preds = %28, %25, %_PyObject_CallNoArgs.exit, %34, %29, %Py_DECREF.exit
  %.1 = phi ptr [ %37, %Py_DECREF.exit ], [ %.0.i.i, %28 ], [ %.0.i.i, %25 ], [ %.0.i.i, %_PyObject_CallNoArgs.exit ], [ null, %34 ], [ null, %29 ]
  ret ptr %.1
}